target datalayout = "e-m:e-p270:32:32-p271:32:32-p272:64:64-i64:64-i128:128-f80:128-n8:16:32:64-S128"
target triple = "x86_64-pc-linux-gnu"

%struct._generic_SUNMatrix_Ops = type { ptr, ptr, ptr, ptr, ptr, ptr, ptr, ptr, ptr, ptr }
%struct._generic_SUNMatrix = type { ptr, ptr, ptr }

; Function Attrs: nounwind uwtable
define i32 @SUNMatCopyOps(ptr noundef %0, ptr noundef %1) #0 {
  %3 = alloca ptr, align 8
  %4 = alloca ptr, align 8
  %5 = alloca ptr, align 8
  store ptr %0, ptr %3, align 8, !tbaa !8
  store ptr %1, ptr %4, align 8, !tbaa !8
  call void @llvm.lifetime.start.p0(i64 8, ptr %5) #4
  %6 = load ptr, ptr %3, align 8, !tbaa !8
  %7 = getelementptr inbounds nuw %struct._generic_SUNMatrix, ptr %6, i32 0, i32 2
  %8 = load ptr, ptr %7, align 8, !tbaa !26
  store ptr %8, ptr %5, align 8, !tbaa !3
  %9 = load ptr, ptr %3, align 8, !tbaa !8
  %10 = getelementptr inbounds nuw %struct._generic_SUNMatrix, ptr %9, i32 0, i32 1
  %11 = load ptr, ptr %10, align 8, !tbaa !23
  %12 = getelementptr inbounds nuw %struct._generic_SUNMatrix_Ops, ptr %11, i32 0, i32 0
  %13 = load ptr, ptr %12, align 8, !tbaa !12
  %14 = load ptr, ptr %4, align 8, !tbaa !8
  %15 = getelementptr inbounds nuw %struct._generic_SUNMatrix, ptr %14, i32 0, i32 1
  %16 = load ptr, ptr %15, align 8, !tbaa !23
  %17 = getelementptr inbounds nuw %struct._generic_SUNMatrix_Ops, ptr %16, i32 0, i32 0
  store ptr %13, ptr %17, align 8, !tbaa !12
  %18 = load ptr, ptr %3, align 8, !tbaa !8
  %19 = getelementptr inbounds nuw %struct._generic_SUNMatrix, ptr %18, i32 0, i32 1
  %20 = load ptr, ptr %19, align 8, !tbaa !23
  %21 = getelementptr inbounds nuw %struct._generic_SUNMatrix_Ops, ptr %20, i32 0, i32 1
  %22 = load ptr, ptr %21, align 8, !tbaa !14
  %23 = load ptr, ptr %4, align 8, !tbaa !8
  %24 = getelementptr inbounds nuw %struct._generic_SUNMatrix, ptr %23, i32 0, i32 1
  %25 = load ptr, ptr %24, align 8, !tbaa !23
  %26 = getelementptr inbounds nuw %struct._generic_SUNMatrix_Ops, ptr %25, i32 0, i32 1
  store ptr %22, ptr %26, align 8, !tbaa !14
  %27 = load ptr, ptr %3, align 8, !tbaa !8
  %28 = getelementptr inbounds nuw %struct._generic_SUNMatrix, ptr %27, i32 0, i32 1
  %29 = load ptr, ptr %28, align 8, !tbaa !23
  %30 = getelementptr inbounds nuw %struct._generic_SUNMatrix_Ops, ptr %29, i32 0, i32 2
  %31 = load ptr, ptr %30, align 8, !tbaa !15
  %32 = load ptr, ptr %4, align 8, !tbaa !8
  %33 = getelementptr inbounds nuw %struct._generic_SUNMatrix, ptr %32, i32 0, i32 1
  %34 = load ptr, ptr %33, align 8, !tbaa !23
  %35 = getelementptr inbounds nuw %struct._generic_SUNMatrix_Ops, ptr %34, i32 0, i32 2
  store ptr %31, ptr %35, align 8, !tbaa !15
  %36 = load ptr, ptr %3, align 8, !tbaa !8
  %37 = getelementptr inbounds nuw %struct._generic_SUNMatrix, ptr %36, i32 0, i32 1
  %38 = load ptr, ptr %37, align 8, !tbaa !23
  %39 = getelementptr inbounds nuw %struct._generic_SUNMatrix_Ops, ptr %38, i32 0, i32 3
  %40 = load ptr, ptr %39, align 8, !tbaa !16
  %41 = load ptr, ptr %4, align 8, !tbaa !8
  %42 = getelementptr inbounds nuw %struct._generic_SUNMatrix, ptr %41, i32 0, i32 1
  %43 = load ptr, ptr %42, align 8, !tbaa !23
  %44 = getelementptr inbounds nuw %struct._generic_SUNMatrix_Ops, ptr %43, i32 0, i32 3
  store ptr %40, ptr %44, align 8, !tbaa !16
  %45 = load ptr, ptr %3, align 8, !tbaa !8
  %46 = getelementptr inbounds nuw %struct._generic_SUNMatrix, ptr %45, i32 0, i32 1
  %47 = load ptr, ptr %46, align 8, !tbaa !23
  %48 = getelementptr inbounds nuw %struct._generic_SUNMatrix_Ops, ptr %47, i32 0, i32 4
  %49 = load ptr, ptr %48, align 8, !tbaa !17
  %50 = load ptr, ptr %4, align 8, !tbaa !8
  %51 = getelementptr inbounds nuw %struct._generic_SUNMatrix, ptr %50, i32 0, i32 1
  %52 = load ptr, ptr %51, align 8, !tbaa !23
  %53 = getelementptr inbounds nuw %struct._generic_SUNMatrix_Ops, ptr %52, i32 0, i32 4
  store ptr %49, ptr %53, align 8, !tbaa !17
  %54 = load ptr, ptr %3, align 8, !tbaa !8
  %55 = getelementptr inbounds nuw %struct._generic_SUNMatrix, ptr %54, i32 0, i32 1
  %56 = load ptr, ptr %55, align 8, !tbaa !23
  %57 = getelementptr inbounds nuw %struct._generic_SUNMatrix_Ops, ptr %56, i32 0, i32 5
  %58 = load ptr, ptr %57, align 8, !tbaa !18
  %59 = load ptr, ptr %4, align 8, !tbaa !8
  %60 = getelementptr inbounds nuw %struct._generic_SUNMatrix, ptr %59, i32 0, i32 1
  %61 = load ptr, ptr %60, align 8, !tbaa !23
  %62 = getelementptr inbounds nuw %struct._generic_SUNMatrix_Ops, ptr %61, i32 0, i32 5
  store ptr %58, ptr %62, align 8, !tbaa !18
  %63 = load ptr, ptr %3, align 8, !tbaa !8
  %64 = getelementptr inbounds nuw %struct._generic_SUNMatrix, ptr %63, i32 0, i32 1
  %65 = load ptr, ptr %64, align 8, !tbaa !23
  %66 = getelementptr inbounds nuw %struct._generic_SUNMatrix_Ops, ptr %65, i32 0, i32 6
  %67 = load ptr, ptr %66, align 8, !tbaa !19
  %68 = load ptr, ptr %4, align 8, !tbaa !8
  %69 = getelementptr inbounds nuw %struct._generic_SUNMatrix, ptr %68, i32 0, i32 1
  %70 = load ptr, ptr %69, align 8, !tbaa !23
  %71 = getelementptr inbounds nuw %struct._generic_SUNMatrix_Ops, ptr %70, i32 0, i32 6
  store ptr %67, ptr %71, align 8, !tbaa !19
  %72 = load ptr, ptr %3, align 8, !tbaa !8
  %73 = getelementptr inbounds nuw %struct._generic_SUNMatrix, ptr %72, i32 0, i32 1
  %74 = load ptr, ptr %73, align 8, !tbaa !23
  %75 = getelementptr inbounds nuw %struct._generic_SUNMatrix_Ops, ptr %74, i32 0, i32 7
  %76 = load ptr, ptr %75, align 8, !tbaa !20
  %77 = load ptr, ptr %4, align 8, !tbaa !8
  %78 = getelementptr inbounds nuw %struct._generic_SUNMatrix, ptr %77, i32 0, i32 1
  %79 = load ptr, ptr %78, align 8, !tbaa !23
  %80 = getelementptr inbounds nuw %struct._generic_SUNMatrix_Ops, ptr %79, i32 0, i32 7
  store ptr %76, ptr %80, align 8, !tbaa !20
  %81 = load ptr, ptr %3, align 8, !tbaa !8
  %82 = getelementptr inbounds nuw %struct._generic_SUNMatrix, ptr %81, i32 0, i32 1
  %83 = load ptr, ptr %82, align 8, !tbaa !23
  %84 = getelementptr inbounds nuw %struct._generic_SUNMatrix_Ops, ptr %83, i32 0, i32 8
  %85 = load ptr, ptr %84, align 8, !tbaa !21
  %86 = load ptr, ptr %4, align 8, !tbaa !8
  %87 = getelementptr inbounds nuw %struct._generic_SUNMatrix, ptr %86, i32 0, i32 1
  %88 = load ptr, ptr %87, align 8, !tbaa !23
  %89 = getelementptr inbounds nuw %struct._generic_SUNMatrix_Ops, ptr %88, i32 0, i32 8
  store ptr %85, ptr %89, align 8, !tbaa !21
  %90 = load ptr, ptr %3, align 8, !tbaa !8
  %91 = getelementptr inbounds nuw %struct._generic_SUNMatrix, ptr %90, i32 0, i32 1
  %92 = load ptr, ptr %91, align 8, !tbaa !23
  %93 = getelementptr inbounds nuw %struct._generic_SUNMatrix_Ops, ptr %92, i32 0, i32 9
  %94 = load ptr, ptr %93, align 8, !tbaa !22
  %95 = load ptr, ptr %4, align 8, !tbaa !8
  %96 = getelementptr inbounds nuw %struct._generic_SUNMatrix, ptr %95, i32 0, i32 1
  %97 = load ptr, ptr %96, align 8, !tbaa !23
  %98 = getelementptr inbounds nuw %struct._generic_SUNMatrix_Ops, ptr %97, i32 0, i32 9
  store ptr %94, ptr %98, align 8, !tbaa !22
  call void @llvm.lifetime.end.p0(i64 8, ptr %5) #4
  ret i32 0
}