; Function Attrs: mustprogress nofree norecurse nosync nounwind willreturn memory(readwrite, inaccessiblemem: none) uwtable
define noundef i32 @SUNMatCopyOps(ptr noundef readonly captures(none) %0, ptr noundef readonly captures(none) %1) local_unnamed_addr #4 {
  %3 = getelementptr inbounds nuw i8, ptr %0, i64 8
  %4 = load ptr, ptr %3, align 8, !tbaa !3
  %5 = load ptr, ptr %4, align 8, !tbaa !12
  %6 = getelementptr inbounds nuw i8, ptr %1, i64 8
  %7 = load ptr, ptr %6, align 8, !tbaa !3
  store ptr %5, ptr %7, align 8, !tbaa !12
  %8 = getelementptr inbounds nuw i8, ptr %4, i64 8
  %9 = load ptr, ptr %8, align 8, !tbaa !14
  %10 = getelementptr inbounds nuw i8, ptr %7, i64 8
  store ptr %9, ptr %10, align 8, !tbaa !14
  %11 = getelementptr inbounds nuw i8, ptr %4, i64 16
  %12 = load ptr, ptr %11, align 8, !tbaa !15
  %13 = getelementptr inbounds nuw i8, ptr %7, i64 16
  store ptr %12, ptr %13, align 8, !tbaa !15
  %14 = getelementptr inbounds nuw i8, ptr %4, i64 24
  %15 = load ptr, ptr %14, align 8, !tbaa !16
  %16 = getelementptr inbounds nuw i8, ptr %7, i64 24
  store ptr %15, ptr %16, align 8, !tbaa !16
  %17 = getelementptr inbounds nuw i8, ptr %4, i64 32
  %18 = load ptr, ptr %17, align 8, !tbaa !17
  %19 = getelementptr inbounds nuw i8, ptr %7, i64 32
  store ptr %18, ptr %19, align 8, !tbaa !17
  %20 = getelementptr inbounds nuw i8, ptr %4, i64 40
  %21 = load ptr, ptr %20, align 8, !tbaa !18
  %22 = getelementptr inbounds nuw i8, ptr %7, i64 40
  store ptr %21, ptr %22, align 8, !tbaa !18
  %23 = getelementptr inbounds nuw i8, ptr %4, i64 48
  %24 = load ptr, ptr %23, align 8, !tbaa !19
  %25 = getelementptr inbounds nuw i8, ptr %7, i64 48
  store ptr %24, ptr %25, align 8, !tbaa !19
  %26 = getelementptr inbounds nuw i8, ptr %4, i64 56
  %27 = load ptr, ptr %26, align 8, !tbaa !20
  %28 = getelementptr inbounds nuw i8, ptr %7, i64 56
  store ptr %27, ptr %28, align 8, !tbaa !20
  %29 = getelementptr inbounds nuw i8, ptr %4, i64 64
  %30 = load ptr, ptr %29, align 8, !tbaa !21
  %31 = getelementptr inbounds nuw i8, ptr %7, i64 64
  store ptr %30, ptr %31, align 8, !tbaa !21
  %32 = getelementptr inbounds nuw i8, ptr %4, i64 72
  %33 = load ptr, ptr %32, align 8, !tbaa !22
  %34 = getelementptr inbounds nuw i8, ptr %7, i64 72
  store ptr %33, ptr %34, align 8, !tbaa !22
  ret i32 0
}